(dp1
S'QA_font'
p2
NsS'log_index'
p3
I7
sS'3_sided_input'
p4
I00
sS'locale'
p5
NsS'show_daily_tips'
p6
I01
sS'import_format'
p7
VXML
p8
sS'day_starts_at'
p9
I3
sS'check_duplicates_when_adding'
p10
I01
sS'sort_order'
p11
I0
sS'only_editable_when_answer_shown'
p12
I00
sS'allow_duplicates_in_diff_cat'
p13
I01
sS'export_dir'
p14
V/home/pete
p15
sS'last_add_category'
p16
V<default>
p17
sS'backups_to_keep'
p18
I5
sS'tip'
p19
I3
sS'randomise_new_cards'
p20
I00
sS'reset_learning_data_export'
p21
I00
sS'last_add_vice_versa'
p22
I01
sS'import_sound_dir'
p23
V/home/pete/.mnemosyne
p24
sS'reset_learning_data_import'
p25
I00
sS'column_1_width'
p26
I963
sS'export_format'
p27
VXML
p28
sS'import_img_dir'
p29
g24
sS'show_intervals'
p30
S'never'
p31
sS'upload_server'
p32
S'mnemosyne-proj.dyndns.org:80'
p33
sS'non_latin_font_size_increase'
p34
I0
sS'path'
p35
Vdefault.mem
p36
sS'sort_column'
p37
I2
sS'left_align'
p38
I00
sS'first_run'
p39
I00
sS'user_id'
p40
S'9a22febe'
p41
sS'column_0_width'
p42
I238
sS'grade_0_items_at_once'
p43
I5
sS'column_2_width'
p44
I110
sS'import_dir'
p45
Vc:\u005Cdocuments and settings\u005Cpete\u005Cdesktop
p46
sS'upload_logs'
p47
I01
sS'list_font'
p48
NsS'keep_logs'
p49
I01
sS'hide_toolbar'
p50
I00
s.